; Function Attrs: mustprogress uwtable
define void @_ZN2cv5gimpl9GCompiler7compileEv(ptr dead_on_unwind noalias writable sret(%"class.cv::GCompiled") align 8 %0, ptr noundef nonnull align 8 dereferenceable(456) %1) local_unnamed_addr #3 align 2 personality ptr @__gxx_personality_v0 {
  %3 = alloca %"class.std::unique_ptr", align 8
  call void @llvm.lifetime.start.p0(i64 8, ptr nonnull %3) #25
  call void @_ZN2cv5gimpl9GCompiler13generateGraphEv(ptr dead_on_unwind nonnull writable sret(%"class.std::unique_ptr") align 8 %3, ptr noundef nonnull align 8 dereferenceable(456) %1)
  %4 = load ptr, ptr %3, align 8, !tbaa !107
  invoke void @_ZN2cv5gimpl9GCompiler9runPassesERN3ade5GraphE(ptr noundef nonnull align 8 dereferenceable(456) %1, ptr noundef nonnull align 8 dereferenceable(168) %4)
          to label %5 unwind label %10

5:                                                ; preds = %2
  %6 = load ptr, ptr %3, align 8, !tbaa !107
  %7 = getelementptr inbounds nuw i8, ptr %1, i64 32
  invoke void @_ZN2cv5gimpl9GCompiler14compileIslandsERN3ade5GraphERKSt6vectorINS_11GCompileArgESaIS6_EE(ptr noundef nonnull align 8 dereferenceable(168) %6, ptr noundef nonnull align 8 dereferenceable(24) %7)
          to label %_ZN2cv5gimpl9GCompiler14compileIslandsERN3ade5GraphE.exit unwind label %10

_ZN2cv5gimpl9GCompiler14compileIslandsERN3ade5GraphE.exit: ; preds = %5
  invoke void @_ZN2cv5gimpl9GCompiler15produceCompiledEOSt10unique_ptrIN3ade5GraphESt14default_deleteIS4_EE(ptr dead_on_unwind writable sret(%"class.cv::GCompiled") align 8 %0, ptr noundef nonnull align 8 dereferenceable(456) %1, ptr noundef nonnull align 8 dereferenceable(8) %3)
          to label %8 unwind label %10

8:                                                ; preds = %_ZN2cv5gimpl9GCompiler14compileIslandsERN3ade5GraphE.exit
  %9 = load ptr, ptr %3, align 8, !tbaa !107
  %.not.i = icmp eq ptr %9, null
  br i1 %.not.i, label %_ZNSt10unique_ptrIN3ade5GraphESt14default_deleteIS1_EED2Ev.exit, label %_ZNKSt14default_deleteIN3ade5GraphEEclEPS1_.exit.i

_ZNKSt14default_deleteIN3ade5GraphEEclEPS1_.exit.i: ; preds = %8
  call void @_ZN3ade5GraphD1Ev(ptr noundef nonnull align 8 dereferenceable(168) %9) #25
  call void @_ZdlPv(ptr noundef nonnull %9) #27
  br label %_ZNSt10unique_ptrIN3ade5GraphESt14default_deleteIS1_EED2Ev.exit

_ZNSt10unique_ptrIN3ade5GraphESt14default_deleteIS1_EED2Ev.exit: ; preds = %8, %_ZNKSt14default_deleteIN3ade5GraphEEclEPS1_.exit.i
  call void @llvm.lifetime.end.p0(i64 8, ptr nonnull %3) #25
  ret void

10:                                               ; preds = %5, %_ZN2cv5gimpl9GCompiler14compileIslandsERN3ade5GraphE.exit, %2
  %11 = landingpad { ptr, i32 }
          cleanup
  call void @_ZNSt10unique_ptrIN3ade5GraphESt14default_deleteIS1_EED2Ev(ptr noundef nonnull align 8 dereferenceable(8) %3) #25
  call void @llvm.lifetime.end.p0(i64 8, ptr nonnull %3) #25
  resume { ptr, i32 } %11
}